target datalayout = "e-m:e-p270:32:32-p271:32:32-p272:64:64-i64:64-i128:128-f80:128-n8:16:32:64-S128"
target triple = "x86_64-unknown-linux-gnu"

%union.pthread_mutex_t = type { %struct.__pthread_mutex_s }
%struct.__pthread_mutex_s = type { i32, i32, i32, i32, i32, i16, i16, %struct.__pthread_internal_list }
%struct.__pthread_internal_list = type { ptr, ptr }
%"class.node::Watchdog" = type { ptr, i64, %struct.uv_loop_s, %struct.uv_async_s, %struct.uv_timer_s, ptr }
%struct.uv_loop_s = type { ptr, i32, %struct.uv__queue, %union.anon, ptr, i32, i64, i32, %struct.uv__queue, %struct.uv__queue, ptr, i32, i32, %struct.uv__queue, %union.pthread_mutex_t, %struct.uv_async_s, %union.pthread_rwlock_t, ptr, %struct.uv__queue, %struct.uv__queue, %struct.uv__queue, %struct.uv__queue, %struct.uv__queue, ptr, %struct.uv__io_s, i32, %struct.anon, i64, i64, [2 x i32], %struct.uv__io_s, %struct.uv_signal_s, i32, %struct.uv__io_s, ptr, i32 }
%union.anon = type { ptr }
%union.pthread_rwlock_t = type { %struct.__pthread_rwlock_arch_t }
%struct.__pthread_rwlock_arch_t = type { i32, i32, i32, i32, i32, i32, i32, i32, i8, [7 x i8], i64, i32 }
%struct.uv__queue = type { ptr, ptr }
%struct.anon = type { ptr, i32 }
%struct.uv_signal_s = type { ptr, ptr, i32, ptr, %struct.uv__queue, %union.anon.1, ptr, i32, ptr, i32, %struct.anon.2, i32, i32 }
%union.anon.1 = type { [4 x ptr] }
%struct.anon.2 = type { ptr, ptr, ptr, i32 }
%struct.uv__io_s = type { ptr, %struct.uv__queue, %struct.uv__queue, i32, i32, i32 }
%struct.uv_async_s = type { ptr, ptr, i32, ptr, %struct.uv__queue, %union.anon.0, ptr, i32, ptr, %struct.uv__queue, i32 }
%union.anon.0 = type { [4 x ptr] }
%struct.uv_timer_s = type { ptr, ptr, i32, ptr, %struct.uv__queue, %union.anon.3, ptr, i32, ptr, [3 x ptr], i64, i64, i64 }
%union.anon.3 = type { [4 x ptr] }

; Function Attrs: mustprogress nounwind uwtable
define dso_local void @_ZN4node8WatchdogD2Ev(ptr noundef nonnull align 8 dereferenceable(1152) %this) unnamed_addr #4 align 2 {
entry:
  %this.addr = alloca ptr, align 8
  store ptr %this, ptr %this.addr, align 8
  %this1 = load ptr, ptr %this.addr, align 8
  %async_ = getelementptr inbounds %"class.node::Watchdog", ptr %this1, i32 0, i32 3
  %call = call i32 @uv_async_send(ptr noundef %async_)
  %thread_ = getelementptr inbounds %"class.node::Watchdog", ptr %this1, i32 0, i32 1
  %call2 = call i32 @uv_thread_join(ptr noundef %thread_)
  %async_3 = getelementptr inbounds %"class.node::Watchdog", ptr %this1, i32 0, i32 3
  call void @uv_close(ptr noundef %async_3, ptr noundef null)
  %loop_ = getelementptr inbounds %"class.node::Watchdog", ptr %this1, i32 0, i32 2
  %call4 = call i32 @uv_run(ptr noundef %loop_, i32 noundef 0)
  %loop_5 = getelementptr inbounds %"class.node::Watchdog", ptr %this1, i32 0, i32 2
  call void @_ZN4node18CheckedUvLoopCloseEP9uv_loop_s(ptr noundef %loop_5)
  ret void
}