; Function Attrs: mustprogress nounwind uwtable
define dso_local void @_ZN4node8WatchdogD2Ev(ptr noundef nonnull align 8 dereferenceable(1152) %this) unnamed_addr #3 align 2 {
entry:
  %async_ = getelementptr inbounds i8, ptr %this, i64 864
  %call = tail call i32 @uv_async_send(ptr noundef nonnull %async_) #15
  %thread_ = getelementptr inbounds i8, ptr %this, i64 8
  %call2 = tail call i32 @uv_thread_join(ptr noundef nonnull %thread_) #15
  tail call void @uv_close(ptr noundef nonnull %async_, ptr noundef null) #15
  %loop_ = getelementptr inbounds i8, ptr %this, i64 16
  %call4 = tail call i32 @uv_run(ptr noundef nonnull %loop_, i32 noundef 0) #15
  tail call void @_ZN4node18CheckedUvLoopCloseEP9uv_loop_s(ptr noundef nonnull %loop_) #15
  ret void
}